target datalayout = "e-m:e-p270:32:32-p271:32:32-p272:64:64-i64:64-i128:128-f80:128-n8:16:32:64-S128"
target triple = "x86_64-pc-linux-gnu"

%struct.Ndr_Data_t_ = type { i32, i32, ptr, ptr }

@.str.1 = private unnamed_addr constant [43 x i8] c"Dumped the current design into file \22%s\22.\0A\00", align 1
@.str.23 = private unnamed_addr constant [3 x i8] c"wb\00", align 1
@.str.24 = private unnamed_addr constant [36 x i8] c"Cannot open file \22%s\22 for writing.\0A\00", align 1
@.str.25 = private unnamed_addr constant [7 x i8] c"stdout\00", align 1

; Function Attrs: inlinehint nounwind uwtable
define internal void @Ndr_Delete(ptr noundef %0) #4 {
  %2 = alloca ptr, align 8
  %3 = alloca ptr, align 8
  %4 = alloca i32, align 4
  store ptr %0, ptr %2, align 8, !tbaa !15
  call void @llvm.lifetime.start.p0(i64 8, ptr %3) #11
  %5 = load ptr, ptr %2, align 8, !tbaa !15
  store ptr %5, ptr %3, align 8, !tbaa !29
  %6 = load ptr, ptr %3, align 8, !tbaa !29
  %7 = icmp ne ptr %6, null
  br i1 %7, label %9, label %8

8:                                                ; preds = %1
  store i32 1, ptr %4, align 4
  br label %17

9:                                                ; preds = %1
  %10 = load ptr, ptr %3, align 8, !tbaa !29
  %11 = getelementptr inbounds nuw %struct.Ndr_Data_t_, ptr %10, i32 0, i32 2
  %12 = load ptr, ptr %11, align 8, !tbaa !34
  call void @free(ptr noundef %12) #11
  %13 = load ptr, ptr %3, align 8, !tbaa !29
  %14 = getelementptr inbounds nuw %struct.Ndr_Data_t_, ptr %13, i32 0, i32 3
  %15 = load ptr, ptr %14, align 8, !tbaa !35
  call void @free(ptr noundef %15) #11
  %16 = load ptr, ptr %3, align 8, !tbaa !29
  call void @free(ptr noundef %16) #11
  store i32 0, ptr %4, align 4
  br label %17

17:                                               ; preds = %9, %8
  call void @llvm.lifetime.end.p0(i64 8, ptr %3) #11
  %18 = load i32, ptr %4, align 4
  switch i32 %18, label %20 [
    i32 0, label %19
    i32 1, label %19
  ]

19:                                               ; preds = %17, %17
  ret void

20:                                               ; preds = %17
  unreachable
}

; Function Attrs: inlinehint nounwind uwtable
define internal void @Ndr_Write(ptr noundef %0, ptr noundef %1) #4 {
  %3 = alloca ptr, align 8
  %4 = alloca ptr, align 8
  %5 = alloca ptr, align 8
  %6 = alloca i32, align 4
  %7 = alloca ptr, align 8
  %8 = alloca i32, align 4
  store ptr %0, ptr %3, align 8, !tbaa !24
  store ptr %1, ptr %4, align 8, !tbaa !15
  call void @llvm.lifetime.start.p0(i64 8, ptr %5) #11
  %9 = load ptr, ptr %4, align 8, !tbaa !15
  store ptr %9, ptr %5, align 8, !tbaa !29
  call void @llvm.lifetime.start.p0(i64 4, ptr %6) #11
  call void @llvm.lifetime.start.p0(i64 8, ptr %7) #11
  %10 = load ptr, ptr %3, align 8, !tbaa !24
  %11 = call noalias ptr @fopen(ptr noundef %10, ptr noundef @.str.23)
  store ptr %11, ptr %7, align 8, !tbaa !50
  %12 = load ptr, ptr %7, align 8, !tbaa !50
  %13 = icmp eq ptr %12, null
  br i1 %13, label %14, label %23

14:                                               ; preds = %2
  %15 = load ptr, ptr %3, align 8, !tbaa !24
  %16 = icmp ne ptr %15, null
  br i1 %16, label %17, label %19

17:                                               ; preds = %14
  %18 = load ptr, ptr %3, align 8, !tbaa !24
  br label %20

19:                                               ; preds = %14
  br label %20

20:                                               ; preds = %19, %17
  %21 = phi ptr [ %18, %17 ], [ @.str.25, %19 ]
  %22 = call i32 (ptr, ...) @printf(ptr noundef @.str.24, ptr noundef %21)
  store i32 1, ptr %8, align 4
  br label %50

23:                                               ; preds = %2
  %24 = load ptr, ptr %5, align 8, !tbaa !29
  %25 = getelementptr inbounds nuw %struct.Ndr_Data_t_, ptr %24, i32 0, i32 3
  %26 = load ptr, ptr %25, align 8, !tbaa !35
  %27 = load ptr, ptr %5, align 8, !tbaa !29
  %28 = getelementptr inbounds nuw %struct.Ndr_Data_t_, ptr %27, i32 0, i32 3
  %29 = load ptr, ptr %28, align 8, !tbaa !35
  %30 = getelementptr inbounds i32, ptr %29, i64 0
  %31 = load i32, ptr %30, align 4, !tbaa !3
  %32 = zext i32 %31 to i64
  %33 = load ptr, ptr %7, align 8, !tbaa !50
  %34 = call i64 @fwrite(ptr noundef %26, i64 noundef 4, i64 noundef %32, ptr noundef %33)
  %35 = trunc i64 %34 to i32
  store i32 %35, ptr %6, align 4, !tbaa !3
  %36 = load ptr, ptr %5, align 8, !tbaa !29
  %37 = getelementptr inbounds nuw %struct.Ndr_Data_t_, ptr %36, i32 0, i32 2
  %38 = load ptr, ptr %37, align 8, !tbaa !34
  %39 = load ptr, ptr %5, align 8, !tbaa !29
  %40 = getelementptr inbounds nuw %struct.Ndr_Data_t_, ptr %39, i32 0, i32 3
  %41 = load ptr, ptr %40, align 8, !tbaa !35
  %42 = getelementptr inbounds i32, ptr %41, i64 0
  %43 = load i32, ptr %42, align 4, !tbaa !3
  %44 = zext i32 %43 to i64
  %45 = load ptr, ptr %7, align 8, !tbaa !50
  %46 = call i64 @fwrite(ptr noundef %38, i64 noundef 1, i64 noundef %44, ptr noundef %45)
  %47 = trunc i64 %46 to i32
  store i32 %47, ptr %6, align 4, !tbaa !3
  %48 = load ptr, ptr %7, align 8, !tbaa !50
  %49 = call i32 @fclose(ptr noundef %48)
  store i32 0, ptr %8, align 4
  br label %50

50:                                               ; preds = %23, %20
  call void @llvm.lifetime.end.p0(i64 8, ptr %7) #11
  call void @llvm.lifetime.end.p0(i64 4, ptr %6) #11
  call void @llvm.lifetime.end.p0(i64 8, ptr %5) #11
  %51 = load i32, ptr %8, align 4
  switch i32 %51, label %53 [
    i32 0, label %52
    i32 1, label %52
  ]

52:                                               ; preds = %50, %50
  ret void

53:                                               ; preds = %50
  unreachable
}

; Function Attrs: nounwind uwtable
define void @Wlc_WriteNdr(ptr noundef %0, ptr noundef %1) #0 {
  %3 = alloca ptr, align 8
  %4 = alloca ptr, align 8
  %5 = alloca ptr, align 8
  store ptr %0, ptr %3, align 8, !tbaa !13
  store ptr %1, ptr %4, align 8, !tbaa !24
  call void @llvm.lifetime.start.p0(i64 8, ptr %5) #11
  %6 = load ptr, ptr %3, align 8, !tbaa !13
  %7 = call ptr @Wlc_NtkToNdr(ptr noundef %6)
  store ptr %7, ptr %5, align 8, !tbaa !15
  %8 = load ptr, ptr %4, align 8, !tbaa !24
  %9 = load ptr, ptr %5, align 8, !tbaa !15
  call void @Ndr_Write(ptr noundef %8, ptr noundef %9)
  %10 = load ptr, ptr %5, align 8, !tbaa !15
  call void @Ndr_Delete(ptr noundef %10)
  %11 = load ptr, ptr %4, align 8, !tbaa !24
  %12 = call i32 (ptr, ...) @printf(ptr noundef @.str.1, ptr noundef %11)
  call void @llvm.lifetime.end.p0(i64 8, ptr %5) #11
  ret void
}